target datalayout = "e-m:e-p270:32:32-p271:32:32-p272:64:64-i64:64-i128:128-f80:128-n8:16:32:64-S128"
target triple = "x86_64-pc-linux-gnu"

%struct.quic_rstream_st = type { %struct.sframe_list_st, ptr, ptr, %struct.uint_range_st, %struct.ring_buf }
%struct.sframe_list_st = type { ptr, ptr, i32, i64, i64, i32, i32 }
%struct.uint_range_st = type { i64, i64 }
%struct.ring_buf = type { ptr, i64, i64, i64 }
%struct.OSSL_TIME = type { i64 }
%struct.ossl_rtt_info_st = type { %struct.OSSL_TIME, %struct.OSSL_TIME, %struct.OSSL_TIME, %struct.OSSL_TIME }

; Function Attrs: inlinehint nounwind uwtable
define internal i64 @ossl_ticks2time(i64 noundef %0) #3 {
  %2 = alloca %struct.OSSL_TIME, align 8
  %3 = alloca i64, align 8
  store i64 %0, ptr %3, align 8, !tbaa !10
  %4 = load i64, ptr %3, align 8, !tbaa !10
  %5 = getelementptr inbounds nuw %struct.OSSL_TIME, ptr %2, i32 0, i32 0
  store i64 %4, ptr %5, align 8, !tbaa !49
  %6 = getelementptr inbounds nuw %struct.OSSL_TIME, ptr %2, i32 0, i32 0
  %7 = load i64, ptr %6, align 8
  ret i64 %7
}

; Function Attrs: inlinehint nounwind uwtable
define internal i64 @ossl_time_zero() #3 {
  %1 = alloca %struct.OSSL_TIME, align 8
  %2 = call i64 @ossl_ticks2time(i64 noundef 0)
  %3 = getelementptr inbounds nuw %struct.OSSL_TIME, ptr %1, i32 0, i32 0
  store i64 %2, ptr %3, align 8
  %4 = getelementptr inbounds nuw %struct.OSSL_TIME, ptr %1, i32 0, i32 0
  %5 = load i64, ptr %4, align 8
  ret i64 %5
}

; Function Attrs: nounwind uwtable
define internal i64 @get_rtt(ptr noundef %0) #0 {
  %2 = alloca %struct.OSSL_TIME, align 8
  %3 = alloca ptr, align 8
  %4 = alloca %struct.ossl_rtt_info_st, align 8
  %5 = alloca %struct.OSSL_TIME, align 8
  store ptr %0, ptr %3, align 8, !tbaa !12
  %6 = load ptr, ptr %3, align 8, !tbaa !12
  %7 = getelementptr inbounds nuw %struct.quic_rstream_st, ptr %6, i32 0, i32 2
  %8 = load ptr, ptr %7, align 8, !tbaa !21
  %9 = icmp ne ptr %8, null
  br i1 %9, label %10, label %15

10:                                               ; preds = %1
  call void @llvm.lifetime.start.p0(i64 32, ptr %4) #8
  %11 = load ptr, ptr %3, align 8, !tbaa !12
  %12 = getelementptr inbounds nuw %struct.quic_rstream_st, ptr %11, i32 0, i32 2
  %13 = load ptr, ptr %12, align 8, !tbaa !21
  call void @ossl_statm_get_rtt_info(ptr noundef %13, ptr noundef %4)
  %14 = getelementptr inbounds nuw %struct.ossl_rtt_info_st, ptr %4, i32 0, i32 0
  call void @llvm.memcpy.p0.p0.i64(ptr align 8 %2, ptr align 8 %14, i64 8, i1 false), !tbaa.struct !40
  call void @llvm.lifetime.end.p0(i64 32, ptr %4) #8
  br label %18

15:                                               ; preds = %1
  call void @llvm.lifetime.start.p0(i64 8, ptr %5) #8
  %16 = call i64 @ossl_time_zero()
  %17 = getelementptr inbounds nuw %struct.OSSL_TIME, ptr %5, i32 0, i32 0
  store i64 %16, ptr %17, align 8
  call void @llvm.memcpy.p0.p0.i64(ptr align 8 %2, ptr align 8 %5, i64 8, i1 false), !tbaa.struct !40
  call void @llvm.lifetime.end.p0(i64 8, ptr %5) #8
  br label %18

18:                                               ; preds = %15, %10
  %19 = getelementptr inbounds nuw %struct.OSSL_TIME, ptr %2, i32 0, i32 0
  %20 = load i64, ptr %19, align 8
  ret i64 %20
}

; Function Attrs: nounwind uwtable
define i32 @ossl_quic_rstream_read(ptr noundef %0, ptr noundef %1, i64 noundef %2, ptr noundef %3, ptr noundef %4) #0 {
  %6 = alloca i32, align 4
  %7 = alloca ptr, align 8
  %8 = alloca ptr, align 8
  %9 = alloca i64, align 8
  %10 = alloca ptr, align 8
  %11 = alloca ptr, align 8
  %12 = alloca %struct.OSSL_TIME, align 8
  %13 = alloca i32, align 4
  store ptr %0, ptr %7, align 8, !tbaa !12
  store ptr %1, ptr %8, align 8, !tbaa !29
  store i64 %2, ptr %9, align 8, !tbaa !10
  store ptr %3, ptr %10, align 8, !tbaa !36
  store ptr %4, ptr %11, align 8, !tbaa !38
  call void @llvm.lifetime.start.p0(i64 8, ptr %12) #8
  %14 = load ptr, ptr %7, align 8, !tbaa !12
  %15 = call i64 @get_rtt(ptr noundef %14)
  %16 = getelementptr inbounds nuw %struct.OSSL_TIME, ptr %12, i32 0, i32 0
  store i64 %15, ptr %16, align 8
  %17 = load ptr, ptr %7, align 8, !tbaa !12
  %18 = load ptr, ptr %8, align 8, !tbaa !29
  %19 = load i64, ptr %9, align 8, !tbaa !10
  %20 = load ptr, ptr %10, align 8, !tbaa !36
  %21 = load ptr, ptr %11, align 8, !tbaa !38
  %22 = call i32 @read_internal(ptr noundef %17, ptr noundef %18, i64 noundef %19, ptr noundef %20, ptr noundef %21, i32 noundef 1)
  %23 = icmp ne i32 %22, 0
  br i1 %23, label %25, label %24

24:                                               ; preds = %5
  store i32 0, ptr %6, align 4
  store i32 1, ptr %13, align 4
  br label %42

25:                                               ; preds = %5
  %26 = load ptr, ptr %7, align 8, !tbaa !12
  %27 = getelementptr inbounds nuw %struct.quic_rstream_st, ptr %26, i32 0, i32 1
  %28 = load ptr, ptr %27, align 8, !tbaa !14
  %29 = icmp ne ptr %28, null
  br i1 %29, label %30, label %41

30:                                               ; preds = %25
  %31 = load ptr, ptr %7, align 8, !tbaa !12
  %32 = getelementptr inbounds nuw %struct.quic_rstream_st, ptr %31, i32 0, i32 1
  %33 = load ptr, ptr %32, align 8, !tbaa !14
  %34 = load ptr, ptr %10, align 8, !tbaa !36
  %35 = load i64, ptr %34, align 8, !tbaa !10
  %36 = getelementptr inbounds nuw %struct.OSSL_TIME, ptr %12, i32 0, i32 0
  %37 = load i64, ptr %36, align 8
  %38 = call i32 @ossl_quic_rxfc_on_retire(ptr noundef %33, i64 noundef %35, i64 %37)
  %39 = icmp ne i32 %38, 0
  br i1 %39, label %41, label %40

40:                                               ; preds = %30
  store i32 0, ptr %6, align 4
  store i32 1, ptr %13, align 4
  br label %42

41:                                               ; preds = %30, %25
  store i32 1, ptr %6, align 4
  store i32 1, ptr %13, align 4
  br label %42

42:                                               ; preds = %41, %40, %24
  call void @llvm.lifetime.end.p0(i64 8, ptr %12) #8
  %43 = load i32, ptr %6, align 4
  ret i32 %43
}