; Function Attrs: nounwind uwtable
define range(i32 0, 2) i32 @ossl_quic_rstream_read(ptr noundef %0, ptr noundef writeonly captures(none) %1, i64 noundef %2, ptr noundef captures(none) %3, ptr noundef writeonly captures(none) %4) local_unnamed_addr #0 {
  %6 = alloca %struct.ossl_rtt_info_st, align 8
  %7 = getelementptr i8, ptr %0, i64 56
  %.val = load ptr, ptr %7, align 8, !tbaa !16
  %.not.i = icmp eq ptr %.val, null
  br i1 %.not.i, label %get_rtt.exit, label %8

8:                                                ; preds = %5
  call void @llvm.lifetime.start.p0(i64 32, ptr nonnull %6) #10
  call void @ossl_statm_get_rtt_info(ptr noundef nonnull %.val, ptr noundef nonnull %6) #10
  %.sroa.02.0.copyload.i = load i64, ptr %6, align 8, !tbaa !24
  call void @llvm.lifetime.end.p0(i64 32, ptr nonnull %6) #10
  br label %get_rtt.exit

get_rtt.exit:                                     ; preds = %5, %8
  %.sroa.02.0.i = phi i64 [ %.sroa.02.0.copyload.i, %8 ], [ 0, %5 ]
  %9 = call fastcc i32 @read_internal(ptr noundef nonnull %0, ptr noundef %1, i64 noundef %2, ptr noundef %3, ptr noundef %4, i32 noundef 1)
  %.not = icmp eq i32 %9, 0
  br i1 %.not, label %17, label %10

10:                                               ; preds = %get_rtt.exit
  %11 = getelementptr inbounds nuw i8, ptr %0, i64 48
  %12 = load ptr, ptr %11, align 8, !tbaa !3
  %.not10 = icmp eq ptr %12, null
  br i1 %.not10, label %16, label %13

13:                                               ; preds = %10
  %14 = load i64, ptr %3, align 8, !tbaa !24
  %15 = call i32 @ossl_quic_rxfc_on_retire(ptr noundef nonnull %12, i64 noundef %14, i64 %.sroa.02.0.i) #10
  %.not11 = icmp eq i32 %15, 0
  br i1 %.not11, label %17, label %16

16:                                               ; preds = %13, %10
  br label %17

17:                                               ; preds = %13, %get_rtt.exit, %16
  %.0 = phi i32 [ 1, %16 ], [ 0, %get_rtt.exit ], [ 0, %13 ]
  ret i32 %.0
}